; Function Attrs: mustprogress uwtable
define hidden noundef ptr @pj_eqc(ptr noundef %0) local_unnamed_addr #0 {
  %.not = icmp eq ptr %0, null
  br i1 %.not, label %22, label %2

2:                                                ; preds = %1
  %3 = tail call noalias dereferenceable_or_null(8) ptr @calloc(i64 noundef 1, i64 noundef 8) #5
  %4 = icmp eq ptr %3, null
  br i1 %4, label %5, label %7

5:                                                ; preds = %2
  %6 = tail call noundef ptr @_Z21pj_default_destructorP8PJconstsi(ptr noundef nonnull %0, i32 noundef 4096)
  br label %_Z32pj_projection_specific_setup_eqcP8PJconsts.exit

7:                                                ; preds = %2
  %8 = getelementptr inbounds nuw i8, ptr %0, i64 88
  store ptr %3, ptr %8, align 8, !tbaa !3
  %9 = load ptr, ptr %0, align 8, !tbaa !36
  %10 = getelementptr inbounds nuw i8, ptr %0, i64 24
  %11 = load ptr, ptr %10, align 8, !tbaa !37
  %12 = tail call i64 @_Z8pj_paramP6pj_ctxP8ARG_listPKc(ptr noundef %9, ptr noundef %11, ptr noundef nonnull @.str.1)
  %13 = bitcast i64 %12 to double
  %14 = tail call double @cos(double noundef %13) #6, !tbaa !38
  store double %14, ptr %3, align 8, !tbaa !39
  %15 = fcmp ugt double %14, 0.000000e+00
  br i1 %15, label %18, label %16

16:                                               ; preds = %7
  tail call void (ptr, ptr, ...) @_Z14proj_log_errorPK8PJconstsPKcz(ptr noundef nonnull %0, ptr noundef nonnull @.str.2)
  %17 = tail call noundef ptr @_Z21pj_default_destructorP8PJconstsi(ptr noundef nonnull %0, i32 noundef 1027)
  br label %_Z32pj_projection_specific_setup_eqcP8PJconsts.exit

18:                                               ; preds = %7
  %19 = getelementptr inbounds nuw i8, ptr %0, i64 112
  store ptr @_ZL13eqc_s_inverse5PJ_XYP8PJconsts, ptr %19, align 8, !tbaa !41
  %20 = getelementptr inbounds nuw i8, ptr %0, i64 104
  store ptr @_ZL13eqc_s_forward5PJ_LPP8PJconsts, ptr %20, align 8, !tbaa !42
  %21 = getelementptr inbounds nuw i8, ptr %0, i64 216
  store double 0.000000e+00, ptr %21, align 8, !tbaa !43
  br label %_Z32pj_projection_specific_setup_eqcP8PJconsts.exit

22:                                               ; preds = %1
  %23 = tail call noundef ptr @_Z6pj_newv()
  %24 = icmp eq ptr %23, null
  br i1 %24, label %_Z32pj_projection_specific_setup_eqcP8PJconsts.exit, label %25

25:                                               ; preds = %22
  %26 = getelementptr inbounds nuw i8, ptr %23, i64 8
  store ptr @.str, ptr %26, align 8, !tbaa !44
  %27 = getelementptr inbounds nuw i8, ptr %23, i64 16
  store ptr @_ZL7des_eqc, ptr %27, align 8, !tbaa !45
  %28 = getelementptr inbounds nuw i8, ptr %23, i64 360
  store i32 1, ptr %28, align 8, !tbaa !46
  %29 = getelementptr inbounds nuw i8, ptr %23, i64 380
  store i32 4, ptr %29, align 4, !tbaa !47
  %30 = getelementptr inbounds nuw i8, ptr %23, i64 384
  store i32 1, ptr %30, align 8, !tbaa !48
  br label %_Z32pj_projection_specific_setup_eqcP8PJconsts.exit

_Z32pj_projection_specific_setup_eqcP8PJconsts.exit: ; preds = %18, %16, %5, %22, %25
  %.0 = phi ptr [ %23, %25 ], [ null, %22 ], [ %6, %5 ], [ %17, %16 ], [ %0, %18 ]
  ret ptr %.0
}